Certificate:
    Data:
        Version: 3 (0x2)
        Serial Number:
            bd:4c:be:ed:f3:db:0f:47:c3:2f:41:58:41:e7:4e:aa
        Signature Algorithm: sha256WithRSAEncryption
        Issuer: CN=masterpi
        Validity
            Not Before: Nov 30 13:45:34 2022 GMT
            Not After : Mar  4 13:45:34 2025 GMT
        Subject: CN=34.87.85.155
        Subject Public Key Info:
            Public Key Algorithm: rsaEncryption
                RSA Public-Key: (2048 bit)
                Modulus:
                    00:b7:51:dc:22:24:25:e0:fa:52:d5:e3:3d:4d:20:
                    21:80:e5:39:9b:f9:df:87:7c:e9:1a:34:0c:43:a1:
                    21:72:27:d4:fd:6b:27:38:c3:5a:05:36:f4:90:c3:
                    1e:a1:5b:61:c7:1f:87:a5:08:d5:2c:02:01:7c:c6:
                    01:46:c6:f2:ef:2d:5f:90:bf:9b:53:be:df:21:87:
                    4e:9f:1c:c3:e3:b5:c0:f9:cc:36:1d:ea:c3:2b:3c:
                    e7:ed:18:28:54:a3:63:7d:01:b2:90:b1:10:cf:46:
                    cf:a5:40:f9:fc:b2:e8:92:b0:1b:30:be:7c:01:fc:
                    f9:77:4f:e7:21:ef:32:e8:fb:36:cf:49:48:46:d8:
                    7b:e7:90:3f:1c:10:a8:92:18:89:06:b5:be:1c:c0:
                    a8:c5:7f:eb:90:9d:a4:4a:55:e0:42:49:b9:f8:55:
                    cb:1b:bf:82:92:0c:e8:00:7b:dc:57:b4:dc:6f:d4:
                    68:ea:8b:57:6e:f7:13:7f:3c:fd:e3:ee:a6:ae:16:
                    41:1c:dd:b5:ee:5f:63:1e:e1:49:3a:6e:cf:e8:d8:
                    ec:e3:8f:27:a1:e8:5c:3b:be:68:b5:6b:5c:55:9f:
                    60:83:77:5f:04:a9:82:b9:4f:0d:31:5b:2f:1a:64:
                    00:22:b5:75:ff:cb:01:21:fa:82:e4:fa:92:d0:93:
                    94:e9
                Exponent: 65537 (0x10001)
        X509v3 extensions:
            X509v3 Basic Constraints: 
                CA:FALSE
            X509v3 Subject Key Identifier: 
                A6:38:17:4A:CB:26:6E:46:30:A4:DD:2F:46:A6:19:C1:79:6D:98:59
            X509v3 Authority Key Identifier: 
                keyid:01:DA:EE:A3:34:28:EE:AB:C0:83:D2:A4:66:FF:FA:F4:CD:D2:CD:31
                DirName:/CN=masterpi
                serial:28:1E:9F:E3:D7:AA:5D:00:D8:FB:5B:F6:25:57:65:E7:96:DB:DF:67

            X509v3 Extended Key Usage: 
                TLS Web Server Authentication
            X509v3 Key Usage: 
                Digital Signature, Key Encipherment
            X509v3 Subject Alternative Name: 
                IP Address:34.87.85.155
    Signature Algorithm: sha256WithRSAEncryption
         a5:17:f3:69:c8:eb:c7:1e:f2:ee:9a:d6:74:e3:f2:cd:3d:e8:
         61:76:35:b0:36:cd:89:9a:73:87:63:6f:b9:82:5e:d6:aa:58:
         c8:a0:75:ed:58:3a:ef:d3:67:43:2a:86:8b:ae:36:04:d7:40:
         5c:42:7d:10:16:be:dd:0e:f7:eb:29:f9:f8:2a:cb:2b:97:bc:
         3e:cd:b3:bb:dc:3a:4f:8c:88:53:5f:14:4e:77:dd:9b:44:08:
         c2:64:b3:58:22:d1:cc:27:b0:c7:14:5c:9b:40:19:4c:72:af:
         f0:4a:1f:de:d4:f1:f6:1b:2a:36:6d:47:b1:d7:41:ec:a1:69:
         1e:bd:87:8c:39:35:17:1d:06:38:a2:a0:7f:4b:65:c8:3f:a4:
         55:06:4e:64:8c:af:d5:94:04:ae:78:35:46:23:fa:21:ac:1a:
         cc:56:64:cb:d2:d2:ce:c7:4d:e1:71:a2:c1:a8:6d:e6:b8:90:
         74:1a:44:db:8b:dd:ad:9c:a6:d8:73:17:dd:2e:d6:99:d1:71:
         f1:7d:1f:74:92:8e:4c:5f:e9:88:e2:a9:a0:a7:1d:03:13:9f:
         e4:06:c6:0f:4c:f2:3a:cc:e2:a4:7a:20:52:de:fd:07:7d:01:
         e8:c9:4f:d9:99:7d:d5:21:5f:1e:93:5c:b7:74:b4:d1:3c:bb:
         67:d8:71:c8
-----BEGIN CERTIFICATE-----
MIIDZjCCAk6gAwIBAgIRAL1Mvu3z2w9Hwy9BWEHnTqowDQYJKoZIhvcNAQELBQAw
EzERMA8GA1UEAwwIbWFzdGVycGkwHhcNMjIxMTMwMTM0NTM0WhcNMjUwMzA0MTM0
NTM0WjAXMRUwEwYDVQQDDAwzNC44Ny44NS4xNTUwggEiMA0GCSqGSIb3DQEBAQUA
A4IBDwAwggEKAoIBAQC3UdwiJCXg+lLV4z1NICGA5Tmb+d+HfOkaNAxDoSFyJ9T9
ayc4w1oFNvSQwx6hW2HHH4elCNUsAgF8xgFGxvLvLV+Qv5tTvt8hh06fHMPjtcD5
zDYd6sMrPOftGChUo2N9AbKQsRDPRs+lQPn8suiSsBswvnwB/Pl3T+ch7zLo+zbP
SUhG2HvnkD8cEKiSGIkGtb4cwKjFf+uQnaRKVeBCSbn4Vcsbv4KSDOgAe9xXtNxv
1Gjqi1du9xN/PP3j7qauFkEc3bXuX2Me4Uk6bs/o2Ozjjyeh6Fw7vmi1a1xVn2CD
d18EqYK5Tw0xWy8aZAAitXX/ywEh+oLk+pLQk5TpAgMBAAGjgbAwga0wCQYDVR0T
BAIwADAdBgNVHQ4EFgQUpjgXSssmbkYwpN0vRqYZwXltmFkwTgYDVR0jBEcwRYAU
AdruozQo7qvAg9KkZv/69M3SzTGhF6QVMBMxETAPBgNVBAMMCG1hc3RlcnBpghQo
Hp/j16pdANj7W/YlV2XnltvfZzATBgNVHSUEDDAKBggrBgEFBQcDATALBgNVHQ8E
BAMCBaAwDwYDVR0RBAgwBocEIldVmzANBgkqhkiG9w0BAQsFAAOCAQEApRfzacjr
xx7y7prWdOPyzT3oYXY1sDbNiZpzh2NvuYJe1qpYyKB17Vg679NnQyqGi642BNdA
XEJ9EBa+3Q736yn5+CrLK5e8Ps2zu9w6T4yIU18UTnfdm0QIwmSzWCLRzCewxxRc
m0AZTHKv8Eof3tTx9hsqNm1HsddB7KFpHr2HjDk1Fx0GOKKgf0tlyD+kVQZOZIyv
1ZQErng1RiP6IawazFZky9LSzsdN4XGiwaht5riQdBpE24vdrZym2HMX3S7WmdFx
8X0fdJKOTF/piOKpoKcdAxOf5AbGD0zyOszipHogUt79B30B6MlP2Zl91SFfHpNc
t3S00Ty7Z9hxyA==
-----END CERTIFICATE-----
