Certificate:
    Data:
        Version: 3 (0x2)
        Serial Number:
            ff:78:a8:90:1c:c4:91:68:58:f9:b6:7f:5b:78:01:6c
        Signature Algorithm: sha256WithRSAEncryption
        Issuer: CN=masterpi
        Validity
            Not Before: Dec  7 09:51:35 2022 GMT
            Not After : Mar 11 09:51:35 2025 GMT
        Subject: CN=clientPhp
        Subject Public Key Info:
            Public Key Algorithm: rsaEncryption
                RSA Public-Key: (2048 bit)
                Modulus:
                    00:c5:1b:20:48:a8:0e:62:da:e9:d8:85:29:6a:dc:
                    ef:c2:89:16:15:a2:7e:59:f0:7d:bb:97:9e:cc:c9:
                    f1:0d:a5:2c:20:b1:6c:0d:74:8d:a1:43:38:ad:e2:
                    83:2c:79:e3:43:0a:08:b5:63:d0:e6:0c:2a:21:eb:
                    12:d0:9c:c7:ac:ca:2b:82:10:d6:b2:07:07:04:b2:
                    24:c7:41:86:52:a7:f6:30:e7:4a:19:f0:90:c9:81:
                    b4:6a:0b:e9:47:88:e3:70:28:05:94:de:7a:cf:b0:
                    94:11:10:ff:87:e6:e5:d4:89:7f:51:df:31:fd:7c:
                    d6:ef:f2:a0:f5:06:f5:ab:ad:21:f3:e8:22:7e:54:
                    91:63:22:ba:ca:07:7f:bd:90:24:40:bb:c5:e6:ae:
                    7a:42:58:06:aa:1e:5c:00:b3:6f:43:e9:43:43:9d:
                    94:a7:55:a9:b7:30:93:f3:b4:f7:e8:72:b7:4e:66:
                    65:de:5a:95:84:1c:3d:14:6f:1f:c9:8a:51:60:ed:
                    ad:e1:d8:f1:1f:11:a6:56:c7:b7:65:6a:26:36:8c:
                    0d:20:22:f3:3d:7a:86:63:be:81:0a:e7:b1:56:27:
                    0f:29:47:ba:04:78:b6:64:80:25:56:27:32:64:f4:
                    fc:43:7f:47:2d:52:ab:62:61:7c:85:3c:9f:63:fc:
                    7a:63
                Exponent: 65537 (0x10001)
        X509v3 extensions:
            X509v3 Basic Constraints: 
                CA:FALSE
            X509v3 Subject Key Identifier: 
                4E:8B:E3:AA:6F:BE:AC:DC:74:78:CC:E7:76:FD:AF:F7:55:AE:B0:DD
            X509v3 Authority Key Identifier: 
                keyid:01:DA:EE:A3:34:28:EE:AB:C0:83:D2:A4:66:FF:FA:F4:CD:D2:CD:31
                DirName:/CN=masterpi
                serial:28:1E:9F:E3:D7:AA:5D:00:D8:FB:5B:F6:25:57:65:E7:96:DB:DF:67

            X509v3 Extended Key Usage: 
                TLS Web Client Authentication
            X509v3 Key Usage: 
                Digital Signature
    Signature Algorithm: sha256WithRSAEncryption
         c1:c0:fa:3a:3a:8c:c5:f7:df:42:12:ec:8b:db:89:06:cc:03:
         6e:e3:23:ed:4f:14:f8:bc:9f:72:08:23:a2:a2:4a:02:16:c3:
         6d:e0:3b:37:b9:07:63:e1:52:8b:9e:a2:32:77:8a:92:b8:e8:
         75:e1:e1:7f:43:42:02:31:a1:48:cb:e4:0a:5e:f0:e5:08:c7:
         ae:b7:99:63:67:b1:de:de:48:e0:26:ad:c1:dc:12:39:74:67:
         c7:fc:7e:f0:6c:fd:1e:83:d8:56:f5:0e:9b:97:2e:75:9e:70:
         d4:26:d7:a4:a2:5d:df:d3:2f:c7:34:04:ec:a1:69:ee:70:12:
         6b:80:63:86:c4:39:c3:b9:1c:06:a7:64:ac:1d:e9:a0:7d:09:
         87:2a:80:82:b1:a5:45:0f:cc:2f:27:18:94:5e:ac:5a:e5:f9:
         30:3f:e0:26:d8:46:7c:a6:44:7c:cb:6b:e5:4f:b4:d1:9b:ca:
         3a:6c:c5:94:6a:c6:ed:64:39:1b:25:4e:46:5f:e0:0d:41:0a:
         a2:e2:93:da:a0:b7:1c:d8:3a:ef:d6:87:d3:e1:07:dd:14:80:
         a6:5a:3d:53:fb:6d:f6:37:69:39:2d:c8:25:f3:a8:6c:09:9a:
         46:18:ef:27:e4:59:31:f5:9d:3f:6c:c8:3f:75:1c:8c:68:07:
         d6:4f:39:6e
-----BEGIN CERTIFICATE-----
MIIDUjCCAjqgAwIBAgIRAP94qJAcxJFoWPm2f1t4AWwwDQYJKoZIhvcNAQELBQAw
EzERMA8GA1UEAwwIbWFzdGVycGkwHhcNMjIxMjA3MDk1MTM1WhcNMjUwMzExMDk1
MTM1WjAUMRIwEAYDVQQDDAljbGllbnRQaHAwggEiMA0GCSqGSIb3DQEBAQUAA4IB
DwAwggEKAoIBAQDFGyBIqA5i2unYhSlq3O/CiRYVon5Z8H27l57MyfENpSwgsWwN
dI2hQzit4oMseeNDCgi1Y9DmDCoh6xLQnMesyiuCENayBwcEsiTHQYZSp/Yw50oZ
8JDJgbRqC+lHiONwKAWU3nrPsJQREP+H5uXUiX9R3zH9fNbv8qD1BvWrrSHz6CJ+
VJFjIrrKB3+9kCRAu8XmrnpCWAaqHlwAs29D6UNDnZSnVam3MJPztPfocrdOZmXe
WpWEHD0Ubx/JilFg7a3h2PEfEaZWx7dlaiY2jA0gIvM9eoZjvoEK57FWJw8pR7oE
eLZkgCVWJzJk9PxDf0ctUqtiYXyFPJ9j/HpjAgMBAAGjgZ8wgZwwCQYDVR0TBAIw
ADAdBgNVHQ4EFgQUTovjqm++rNx0eMzndv2v91WusN0wTgYDVR0jBEcwRYAUAdru
ozQo7qvAg9KkZv/69M3SzTGhF6QVMBMxETAPBgNVBAMMCG1hc3RlcnBpghQoHp/j
16pdANj7W/YlV2XnltvfZzATBgNVHSUEDDAKBggrBgEFBQcDAjALBgNVHQ8EBAMC
B4AwDQYJKoZIhvcNAQELBQADggEBAMHA+jo6jMX330IS7IvbiQbMA27jI+1PFPi8
n3III6KiSgIWw23gOze5B2PhUoueojJ3ipK46HXh4X9DQgIxoUjL5Ape8OUIx663
mWNnsd7eSOAmrcHcEjl0Z8f8fvBs/R6D2Fb1DpuXLnWecNQm16SiXd/TL8c0BOyh
ae5wEmuAY4bEOcO5HAanZKwd6aB9CYcqgIKxpUUPzC8nGJRerFrl+TA/4CbYRnym
RHzLa+VPtNGbyjpsxZRqxu1kORslTkZf4A1BCqLik9qgtxzYOu/Wh9PhB90UgKZa
PVP7bfY3aTktyCXzqGwJmkYY7yfkWTH1nT9syD91HIxoB9ZPOW4=
-----END CERTIFICATE-----
