Certificate:
    Data:
        Version: 3 (0x2)
        Serial Number:
            16:ca:b9:81:3a:dc:ef:c5:5f:c4:3d:74:f6:68:4e:9d
        Signature Algorithm: sha256WithRSAEncryption
        Issuer: CN=mastervpn
        Validity
            Not Before: Nov 29 14:03:14 2022 GMT
            Not After : Mar  3 14:03:14 2025 GMT
        Subject: CN=192.168.1.100
        Subject Public Key Info:
            Public Key Algorithm: rsaEncryption
                RSA Public-Key: (2048 bit)
                Modulus:
                    00:bc:fd:f6:43:c5:05:04:58:38:80:3e:92:84:d0:
                    87:cd:4f:65:db:27:a5:69:c3:e9:34:79:0b:b4:f8:
                    5f:e8:09:c4:0f:b3:97:57:b5:d7:d9:c6:69:6c:fb:
                    88:89:df:1b:b5:1b:6d:73:7d:da:92:b4:64:1c:4c:
                    16:21:98:67:37:e3:11:54:4f:47:f8:37:1b:4b:37:
                    7e:8b:bb:a8:9d:7d:b7:e5:b8:d0:e1:a7:18:27:55:
                    f6:86:04:d6:fe:c9:42:65:f0:36:fc:ac:91:3d:25:
                    2f:b3:00:46:d3:6e:d0:84:8f:f1:51:fd:a8:c0:20:
                    69:39:74:59:72:35:8a:12:93:70:cf:30:23:53:12:
                    e0:c7:bf:34:77:8b:63:c0:bd:5c:b0:56:ed:e1:6f:
                    3c:49:25:2d:03:b3:ca:26:b4:4b:ed:54:44:23:66:
                    52:04:54:37:dc:3e:39:5c:8f:c3:eb:92:b9:a7:e4:
                    3e:ed:e1:e2:f0:14:49:fe:8b:6e:82:75:92:f7:5e:
                    d9:36:ec:ff:f5:8b:d0:66:7e:43:5d:a0:30:92:08:
                    b1:d4:f3:fa:28:56:c8:f9:e8:84:17:ac:c6:59:00:
                    da:8d:d0:d1:20:df:34:86:08:e6:30:a3:91:6b:fa:
                    01:8c:1f:22:98:a5:c1:fb:4f:9c:53:93:0b:ca:7a:
                    62:2d
                Exponent: 65537 (0x10001)
        X509v3 extensions:
            X509v3 Basic Constraints: 
                CA:FALSE
            X509v3 Subject Key Identifier: 
                41:EF:2E:94:A5:84:27:E5:F7:61:98:47:6D:60:B4:D4:96:8D:98:4E
            X509v3 Authority Key Identifier: 
                keyid:E2:E9:CC:09:66:86:EF:01:25:C1:36:33:95:9E:EF:2C:46:51:91:69
                DirName:/CN=mastervpn
                serial:54:F1:17:76:76:EC:F0:38:EC:9D:EF:E5:D4:DC:6E:E6:72:43:33:20

            X509v3 Extended Key Usage: 
                TLS Web Server Authentication
            X509v3 Key Usage: 
                Digital Signature, Key Encipherment
            X509v3 Subject Alternative Name: 
                IP Address:192.168.1.100
    Signature Algorithm: sha256WithRSAEncryption
         4b:57:aa:1f:69:82:5b:48:05:d9:82:53:08:af:2c:4c:0e:4a:
         a5:f2:7b:45:96:56:41:82:89:e8:69:46:be:4c:e0:9b:eb:78:
         c5:e6:1e:7e:cc:86:4f:ba:88:14:45:fd:13:0c:b9:e3:bb:11:
         e6:12:24:83:45:81:f2:eb:a8:70:bf:16:67:00:78:a7:58:34:
         8d:02:97:a9:4d:67:82:fd:37:24:6f:83:62:09:e3:09:e2:bd:
         6b:83:a9:31:ab:b6:f9:86:46:e6:d2:ce:71:b8:7b:e4:70:05:
         d1:7c:55:37:a5:c3:ba:59:7f:d0:67:96:81:5f:02:2a:3b:ce:
         46:54:55:7b:6a:01:ec:f4:e3:ae:ad:c8:5e:1b:6f:bd:b1:57:
         75:ba:9d:1f:dc:24:7c:79:9c:5e:bd:44:4e:88:21:16:e2:f4:
         22:51:81:1e:bd:ac:3d:a8:0d:9b:a6:e1:91:0a:ea:19:c2:18:
         4c:d2:a0:d5:e3:97:a8:5e:48:a4:80:1a:59:e3:ab:d4:16:e9:
         db:ef:27:fc:f5:97:49:37:48:99:b6:61:17:8e:b7:d6:96:5d:
         ff:b1:e1:c2:dc:dc:22:78:bd:5a:08:a5:23:61:86:30:c2:f4:
         ce:d8:06:d6:30:19:b0:3a:cc:dc:48:a5:86:f9:bc:12:09:13:
         fd:97:38:f7
-----BEGIN CERTIFICATE-----
MIIDaDCCAlCgAwIBAgIQFsq5gTrc78VfxD109mhOnTANBgkqhkiG9w0BAQsFADAU
MRIwEAYDVQQDDAltYXN0ZXJ2cG4wHhcNMjIxMTI5MTQwMzE0WhcNMjUwMzAzMTQw
MzE0WjAYMRYwFAYDVQQDDA0xOTIuMTY4LjEuMTAwMIIBIjANBgkqhkiG9w0BAQEF
AAOCAQ8AMIIBCgKCAQEAvP32Q8UFBFg4gD6ShNCHzU9l2yelacPpNHkLtPhf6AnE
D7OXV7XX2cZpbPuIid8btRttc33akrRkHEwWIZhnN+MRVE9H+DcbSzd+i7uonX23
5bjQ4acYJ1X2hgTW/slCZfA2/KyRPSUvswBG027QhI/xUf2owCBpOXRZcjWKEpNw
zzAjUxLgx780d4tjwL1csFbt4W88SSUtA7PKJrRL7VREI2ZSBFQ33D45XI/D65K5
p+Q+7eHi8BRJ/otugnWS917ZNuz/9YvQZn5DXaAwkgix1PP6KFbI+eiEF6zGWQDa
jdDRIN80hgjmMKORa/oBjB8imKXB+0+cU5MLynpiLQIDAQABo4GxMIGuMAkGA1Ud
EwQCMAAwHQYDVR0OBBYEFEHvLpSlhCfl92GYR21gtNSWjZhOME8GA1UdIwRIMEaA
FOLpzAlmhu8BJcE2M5We7yxGUZFpoRikFjAUMRIwEAYDVQQDDAltYXN0ZXJ2cG6C
FFTxF3Z27PA47J3v5dTcbuZyQzMgMBMGA1UdJQQMMAoGCCsGAQUFBwMBMAsGA1Ud
DwQEAwIFoDAPBgNVHREECDAGhwTAqAFkMA0GCSqGSIb3DQEBCwUAA4IBAQBLV6of
aYJbSAXZglMIryxMDkql8ntFllZBgonoaUa+TOCb63jF5h5+zIZPuogURf0TDLnj
uxHmEiSDRYHy66hwvxZnAHinWDSNApepTWeC/Tckb4NiCeMJ4r1rg6kxq7b5hkbm
0s5xuHvkcAXRfFU3pcO6WX/QZ5aBXwIqO85GVFV7agHs9OOurcheG2+9sVd1up0f
3CR8eZxevUROiCEW4vQiUYEevaw9qA2bpuGRCuoZwhhM0qDV45eoXkikgBpZ46vU
Funb7yf89ZdJN0iZtmEXjrfWll3/seHC3NwieL1aCKUjYYYwwvTO2AbWMBmwOszc
SKWG+bwSCRP9lzj3
-----END CERTIFICATE-----
