Certificate:
    Data:
        Version: 3 (0x2)
        Serial Number:
            a5:ca:05:43:9c:b5:a3:31:d1:17:6a:cf:98:d3:79:cf
        Signature Algorithm: sha256WithRSAEncryption
        Issuer: CN=mastervpn
        Validity
            Not Before: Nov 29 14:40:29 2022 GMT
            Not After : Mar  3 14:40:29 2025 GMT
        Subject: CN=34.87.85.155
        Subject Public Key Info:
            Public Key Algorithm: rsaEncryption
                RSA Public-Key: (2048 bit)
                Modulus:
                    00:bd:82:36:03:7c:00:37:7f:77:58:b3:22:97:1b:
                    41:ee:fe:79:69:b7:b2:82:42:7b:66:2e:de:b5:a7:
                    bc:33:97:ed:67:a6:28:38:31:d8:ab:10:4e:c6:58:
                    11:7a:73:54:a7:18:06:95:46:dd:32:9c:f9:2a:27:
                    ed:f2:ae:9c:40:66:db:2c:66:a4:bb:79:5a:82:e4:
                    b2:a9:86:39:b6:c5:81:c3:a7:1e:5c:89:1c:2f:8a:
                    8a:2d:7a:5e:9e:01:3a:61:80:4c:19:1c:d7:5e:fb:
                    29:02:61:f8:ee:b1:23:c0:f8:b2:04:60:f9:51:4d:
                    49:38:8e:08:1d:d9:33:24:f6:d9:d5:cd:94:6d:44:
                    2a:58:7c:f5:b9:59:ba:fc:81:b8:43:8d:5c:85:85:
                    ee:9d:fa:e4:61:ba:9f:f5:c0:8b:87:74:34:4e:c8:
                    d6:99:a4:60:af:3b:f1:3d:9a:e1:0d:3d:e9:7f:a1:
                    44:6e:d9:df:e3:d1:07:c4:0d:92:39:48:2c:9a:82:
                    4c:8f:d7:6d:86:46:34:b1:6d:09:26:06:f8:d0:be:
                    d3:2b:f3:1c:4a:c4:9a:96:76:a8:27:ac:e1:9c:b1:
                    fe:a3:94:5d:3d:e9:89:25:0e:aa:3c:2a:59:26:d4:
                    73:84:44:66:2d:55:c2:7b:3e:b6:20:29:6e:81:a8:
                    da:a9
                Exponent: 65537 (0x10001)
        X509v3 extensions:
            X509v3 Basic Constraints: 
                CA:FALSE
            X509v3 Subject Key Identifier: 
                9F:FD:0E:9E:5F:9F:51:69:C7:34:E5:ED:36:F5:A8:AF:B5:2F:55:91
            X509v3 Authority Key Identifier: 
                keyid:5C:F9:4B:85:E0:46:4D:0F:93:C1:1A:22:C1:6A:B6:F1:56:F2:B2:1C
                DirName:/CN=mastervpn
                serial:26:8F:ED:C8:1F:14:1B:2F:71:11:EB:DB:E8:7F:E3:4D:FB:64:1A:30

            X509v3 Extended Key Usage: 
                TLS Web Server Authentication
            X509v3 Key Usage: 
                Digital Signature, Key Encipherment
            X509v3 Subject Alternative Name: 
                IP Address:34.87.85.155
    Signature Algorithm: sha256WithRSAEncryption
         7a:ad:f1:9f:f1:10:5f:2f:ca:23:c0:ce:5b:26:4e:d5:4d:43:
         1d:ac:fd:27:9c:d4:b9:9f:71:d1:6c:8b:dc:3e:de:25:12:6e:
         98:9d:29:2d:d8:3d:d6:52:83:1e:0e:63:df:83:ff:5d:6b:5b:
         f0:1e:d1:0d:ea:e4:02:90:0c:9f:22:84:14:bf:02:04:27:5f:
         8c:9b:9d:d0:24:72:cf:0f:bc:24:be:9c:b9:d7:5c:82:33:c3:
         7f:dd:f2:a3:aa:1b:a2:fa:59:de:fd:27:f1:0e:96:58:66:13:
         96:17:04:00:ed:59:6e:15:12:7f:7e:ae:09:17:42:a6:d9:fb:
         22:fd:07:42:e3:17:a2:d0:c5:55:b1:53:12:e0:a3:1f:d3:17:
         49:a1:16:05:66:71:a2:e2:d8:80:35:a1:fe:5e:53:2f:e7:02:
         41:a8:4a:ad:50:69:97:05:ad:f5:ff:fe:33:5b:0d:71:33:2f:
         bb:f4:39:e0:d4:f5:7d:21:f9:68:98:01:e4:4a:b1:ba:79:77:
         a3:9c:da:78:82:6c:c1:10:df:52:5b:45:59:af:f4:35:fc:2a:
         2b:c2:20:e2:04:8c:18:6a:0e:da:af:17:77:76:ce:41:fd:b7:
         e8:40:92:94:10:63:6d:b6:e5:cf:60:bd:68:c0:f2:f7:1b:2f:
         ff:31:be:6b
-----BEGIN CERTIFICATE-----
MIIDaDCCAlCgAwIBAgIRAKXKBUOctaMx0Rdqz5jTec8wDQYJKoZIhvcNAQELBQAw
FDESMBAGA1UEAwwJbWFzdGVydnBuMB4XDTIyMTEyOTE0NDAyOVoXDTI1MDMwMzE0
NDAyOVowFzEVMBMGA1UEAwwMMzQuODcuODUuMTU1MIIBIjANBgkqhkiG9w0BAQEF
AAOCAQ8AMIIBCgKCAQEAvYI2A3wAN393WLMilxtB7v55abeygkJ7Zi7etae8M5ft
Z6YoODHYqxBOxlgRenNUpxgGlUbdMpz5Kift8q6cQGbbLGaku3laguSyqYY5tsWB
w6ceXIkcL4qKLXpengE6YYBMGRzXXvspAmH47rEjwPiyBGD5UU1JOI4IHdkzJPbZ
1c2UbUQqWHz1uVm6/IG4Q41chYXunfrkYbqf9cCLh3Q0TsjWmaRgrzvxPZrhDT3p
f6FEbtnf49EHxA2SOUgsmoJMj9dthkY0sW0JJgb40L7TK/McSsSalnaoJ6zhnLH+
o5RdPemJJQ6qPCpZJtRzhERmLVXCez62IClugajaqQIDAQABo4GxMIGuMAkGA1Ud
EwQCMAAwHQYDVR0OBBYEFJ/9Dp5fn1FpxzTl7Tb1qK+1L1WRME8GA1UdIwRIMEaA
FFz5S4XgRk0Pk8EaIsFqtvFW8rIcoRikFjAUMRIwEAYDVQQDDAltYXN0ZXJ2cG6C
FCaP7cgfFBsvcRHr2+h/4037ZBowMBMGA1UdJQQMMAoGCCsGAQUFBwMBMAsGA1Ud
DwQEAwIFoDAPBgNVHREECDAGhwQiV1WbMA0GCSqGSIb3DQEBCwUAA4IBAQB6rfGf
8RBfL8ojwM5bJk7VTUMdrP0nnNS5n3HRbIvcPt4lEm6YnSkt2D3WUoMeDmPfg/9d
a1vwHtEN6uQCkAyfIoQUvwIEJ1+Mm53QJHLPD7wkvpy511yCM8N/3fKjqhui+lne
/SfxDpZYZhOWFwQA7VluFRJ/fq4JF0Km2fsi/QdC4xei0MVVsVMS4KMf0xdJoRYF
ZnGi4tiANaH+XlMv5wJBqEqtUGmXBa31//4zWw1xMy+79Dng1PV9IflomAHkSrG6
eXejnNp4gmzBEN9SW0VZr/Q1/CorwiDiBIwYag7arxd3ds5B/bfoQJKUEGNttuXP
YL1owPL3Gy//Mb5r
-----END CERTIFICATE-----
